target datalayout = "e-m:e-p270:32:32-p271:32:32-p272:64:64-i64:64-i128:128-f80:128-n8:16:32:64-S128"
target triple = "x86_64-pc-linux-gnu"

%struct.duckdb_fsst_decoder_t = type { i64, i8, [255 x i8], [255 x i64] }

; Function Attrs: mustprogress nounwind uwtable
define hidden i32 @duckdb_fsst_import(ptr noundef %0, ptr noundef %1) #5 {
  %3 = alloca i32, align 4
  %4 = alloca ptr, align 8
  %5 = alloca ptr, align 8
  %6 = alloca i64, align 8
  %7 = alloca i32, align 4
  %8 = alloca i32, align 4
  %9 = alloca [8 x i8], align 1
  %10 = alloca i32, align 4
  %11 = alloca i32, align 4
  %12 = alloca i32, align 4
  %13 = alloca i32, align 4
  store ptr %0, ptr %4, align 8, !tbaa !45
  store ptr %1, ptr %5, align 8, !tbaa !38
  call void @llvm.lifetime.start.p0(i64 8, ptr %6) #3
  store i64 0, ptr %6, align 8, !tbaa !32
  call void @llvm.lifetime.start.p0(i64 4, ptr %7) #3
  call void @llvm.lifetime.start.p0(i64 4, ptr %8) #3
  store i32 17, ptr %8, align 4, !tbaa !3
  call void @llvm.lifetime.start.p0(i64 8, ptr %9) #3
  %14 = load ptr, ptr %5, align 8, !tbaa !38
  call void @llvm.memcpy.p0.p0.i64(ptr align 8 %6, ptr align 1 %14, i64 8, i1 false)
  %15 = load i64, ptr %6, align 8, !tbaa !32
  %16 = lshr i64 %15, 32
  %17 = icmp ne i64 %16, 20190218
  br i1 %17, label %18, label %19

18:                                               ; preds = %2
  store i32 0, ptr %3, align 4
  store i32 1, ptr %10, align 4
  br label %146

19:                                               ; preds = %2
  %20 = load ptr, ptr %5, align 8, !tbaa !38
  %21 = getelementptr inbounds i8, ptr %20, i64 8
  %22 = load i8, ptr %21, align 1, !tbaa !7
  %23 = zext i8 %22 to i32
  %24 = and i32 %23, 1
  %25 = trunc i32 %24 to i8
  %26 = load ptr, ptr %4, align 8, !tbaa !45
  %27 = getelementptr inbounds nuw %struct.duckdb_fsst_decoder_t, ptr %26, i32 0, i32 1
  store i8 %25, ptr %27, align 8, !tbaa !108
  %28 = getelementptr inbounds [8 x i8], ptr %9, i64 0, i64 0
  %29 = load ptr, ptr %5, align 8, !tbaa !38
  %30 = getelementptr inbounds i8, ptr %29, i64 9
  call void @llvm.memcpy.p0.p0.i64(ptr align 1 %28, ptr align 1 %30, i64 8, i1 false)
  %31 = load ptr, ptr %4, align 8, !tbaa !45
  %32 = getelementptr inbounds nuw %struct.duckdb_fsst_decoder_t, ptr %31, i32 0, i32 2
  %33 = getelementptr inbounds [255 x i8], ptr %32, i64 0, i64 0
  store i8 1, ptr %33, align 1, !tbaa !7
  %34 = load ptr, ptr %4, align 8, !tbaa !45
  %35 = getelementptr inbounds nuw %struct.duckdb_fsst_decoder_t, ptr %34, i32 0, i32 3
  %36 = getelementptr inbounds [255 x i64], ptr %35, i64 0, i64 0
  store i64 0, ptr %36, align 8, !tbaa !111
  %37 = load ptr, ptr %4, align 8, !tbaa !45
  %38 = getelementptr inbounds nuw %struct.duckdb_fsst_decoder_t, ptr %37, i32 0, i32 1
  %39 = load i8, ptr %38, align 8, !tbaa !108
  %40 = zext i8 %39 to i32
  store i32 %40, ptr %7, align 4, !tbaa !3
  %41 = load ptr, ptr %4, align 8, !tbaa !45
  %42 = getelementptr inbounds nuw %struct.duckdb_fsst_decoder_t, ptr %41, i32 0, i32 1
  %43 = load i8, ptr %42, align 8, !tbaa !108
  %44 = icmp ne i8 %43, 0
  br i1 %44, label %45, label %49

45:                                               ; preds = %19
  %46 = getelementptr inbounds [8 x i8], ptr %9, i64 0, i64 0
  %47 = load i8, ptr %46, align 1, !tbaa !7
  %48 = add i8 %47, -1
  store i8 %48, ptr %46, align 1, !tbaa !7
  br label %49

49:                                               ; preds = %45, %19
  call void @llvm.lifetime.start.p0(i64 4, ptr %11) #3
  store i32 1, ptr %11, align 4, !tbaa !3
  br label %50

50:                                               ; preds = %116, %49
  %51 = load i32, ptr %11, align 4, !tbaa !3
  %52 = icmp ule i32 %51, 8
  br i1 %52, label %54, label %53

53:                                               ; preds = %50
  store i32 2, ptr %10, align 4
  call void @llvm.lifetime.end.p0(i64 4, ptr %11) #3
  br label %119

54:                                               ; preds = %50
  call void @llvm.lifetime.start.p0(i64 4, ptr %12) #3
  store i32 0, ptr %12, align 4, !tbaa !3
  br label %55

55:                                               ; preds = %110, %54
  %56 = load i32, ptr %12, align 4, !tbaa !3
  %57 = load i32, ptr %11, align 4, !tbaa !3
  %58 = and i32 %57, 7
  %59 = zext i32 %58 to i64
  %60 = getelementptr inbounds nuw [8 x i8], ptr %9, i64 0, i64 %59
  %61 = load i8, ptr %60, align 1, !tbaa !7
  %62 = zext i8 %61 to i32
  %63 = icmp ult i32 %56, %62
  br i1 %63, label %65, label %64

64:                                               ; preds = %55
  store i32 5, ptr %10, align 4
  call void @llvm.lifetime.end.p0(i64 4, ptr %12) #3
  br label %115

65:                                               ; preds = %55
  %66 = load i32, ptr %11, align 4, !tbaa !3
  %67 = and i32 %66, 7
  %68 = add i32 %67, 1
  %69 = trunc i32 %68 to i8
  %70 = load ptr, ptr %4, align 8, !tbaa !45
  %71 = getelementptr inbounds nuw %struct.duckdb_fsst_decoder_t, ptr %70, i32 0, i32 2
  %72 = load i32, ptr %7, align 4, !tbaa !3
  %73 = zext i32 %72 to i64
  %74 = getelementptr inbounds nuw [255 x i8], ptr %71, i64 0, i64 %73
  store i8 %69, ptr %74, align 1, !tbaa !7
  %75 = load ptr, ptr %4, align 8, !tbaa !45
  %76 = getelementptr inbounds nuw %struct.duckdb_fsst_decoder_t, ptr %75, i32 0, i32 3
  %77 = load i32, ptr %7, align 4, !tbaa !3
  %78 = zext i32 %77 to i64
  %79 = getelementptr inbounds nuw [255 x i64], ptr %76, i64 0, i64 %78
  store i64 0, ptr %79, align 8, !tbaa !111
  call void @llvm.lifetime.start.p0(i64 4, ptr %13) #3
  store i32 0, ptr %13, align 4, !tbaa !3
  br label %80

80:                                               ; preds = %106, %65
  %81 = load i32, ptr %13, align 4, !tbaa !3
  %82 = load ptr, ptr %4, align 8, !tbaa !45
  %83 = getelementptr inbounds nuw %struct.duckdb_fsst_decoder_t, ptr %82, i32 0, i32 2
  %84 = load i32, ptr %7, align 4, !tbaa !3
  %85 = zext i32 %84 to i64
  %86 = getelementptr inbounds nuw [255 x i8], ptr %83, i64 0, i64 %85
  %87 = load i8, ptr %86, align 1, !tbaa !7
  %88 = zext i8 %87 to i32
  %89 = icmp ult i32 %81, %88
  br i1 %89, label %91, label %90

90:                                               ; preds = %80
  store i32 8, ptr %10, align 4
  call void @llvm.lifetime.end.p0(i64 4, ptr %13) #3
  br label %109

91:                                               ; preds = %80
  %92 = load ptr, ptr %5, align 8, !tbaa !38
  %93 = load i32, ptr %8, align 4, !tbaa !3
  %94 = add i32 %93, 1
  store i32 %94, ptr %8, align 4, !tbaa !3
  %95 = zext i32 %93 to i64
  %96 = getelementptr inbounds nuw i8, ptr %92, i64 %95
  %97 = load i8, ptr %96, align 1, !tbaa !7
  %98 = load ptr, ptr %4, align 8, !tbaa !45
  %99 = getelementptr inbounds nuw %struct.duckdb_fsst_decoder_t, ptr %98, i32 0, i32 3
  %100 = load i32, ptr %7, align 4, !tbaa !3
  %101 = zext i32 %100 to i64
  %102 = getelementptr inbounds nuw [255 x i64], ptr %99, i64 0, i64 %101
  %103 = load i32, ptr %13, align 4, !tbaa !3
  %104 = zext i32 %103 to i64
  %105 = getelementptr inbounds nuw i8, ptr %102, i64 %104
  store i8 %97, ptr %105, align 1, !tbaa !7
  br label %106

106:                                              ; preds = %91
  %107 = load i32, ptr %13, align 4, !tbaa !3
  %108 = add i32 %107, 1
  store i32 %108, ptr %13, align 4, !tbaa !3
  br label %80, !llvm.loop !112

109:                                              ; preds = %90
  br label %110

110:                                              ; preds = %109
  %111 = load i32, ptr %12, align 4, !tbaa !3
  %112 = add i32 %111, 1
  store i32 %112, ptr %12, align 4, !tbaa !3
  %113 = load i32, ptr %7, align 4, !tbaa !3
  %114 = add i32 %113, 1
  store i32 %114, ptr %7, align 4, !tbaa !3
  br label %55, !llvm.loop !113

115:                                              ; preds = %64
  br label %116

116:                                              ; preds = %115
  %117 = load i32, ptr %11, align 4, !tbaa !3
  %118 = add i32 %117, 1
  store i32 %118, ptr %11, align 4, !tbaa !3
  br label %50, !llvm.loop !114

119:                                              ; preds = %53
  %120 = load ptr, ptr %4, align 8, !tbaa !45
  %121 = getelementptr inbounds nuw %struct.duckdb_fsst_decoder_t, ptr %120, i32 0, i32 1
  %122 = load i8, ptr %121, align 8, !tbaa !108
  %123 = icmp ne i8 %122, 0
  br i1 %123, label %124, label %128

124:                                              ; preds = %119
  %125 = getelementptr inbounds [8 x i8], ptr %9, i64 0, i64 0
  %126 = load i8, ptr %125, align 1, !tbaa !7
  %127 = add i8 %126, 1
  store i8 %127, ptr %125, align 1, !tbaa !7
  br label %128

128:                                              ; preds = %124, %119
  br label %129

129:                                              ; preds = %132, %128
  %130 = load i32, ptr %7, align 4, !tbaa !3
  %131 = icmp ult i32 %130, 255
  br i1 %131, label %132, label %144

132:                                              ; preds = %129
  %133 = load ptr, ptr %4, align 8, !tbaa !45
  %134 = getelementptr inbounds nuw %struct.duckdb_fsst_decoder_t, ptr %133, i32 0, i32 3
  %135 = load i32, ptr %7, align 4, !tbaa !3
  %136 = zext i32 %135 to i64
  %137 = getelementptr inbounds nuw [255 x i64], ptr %134, i64 0, i64 %136
  store i64 32774747032022883, ptr %137, align 8, !tbaa !111
  %138 = load ptr, ptr %4, align 8, !tbaa !45
  %139 = getelementptr inbounds nuw %struct.duckdb_fsst_decoder_t, ptr %138, i32 0, i32 2
  %140 = load i32, ptr %7, align 4, !tbaa !3
  %141 = add i32 %140, 1
  store i32 %141, ptr %7, align 4, !tbaa !3
  %142 = zext i32 %140 to i64
  %143 = getelementptr inbounds nuw [255 x i8], ptr %139, i64 0, i64 %142
  store i8 8, ptr %143, align 1, !tbaa !7
  br label %129, !llvm.loop !115

144:                                              ; preds = %129
  %145 = load i32, ptr %8, align 4, !tbaa !3
  store i32 %145, ptr %3, align 4
  store i32 1, ptr %10, align 4
  br label %146

146:                                              ; preds = %144, %18
  call void @llvm.lifetime.end.p0(i64 8, ptr %9) #3
  call void @llvm.lifetime.end.p0(i64 4, ptr %8) #3
  call void @llvm.lifetime.end.p0(i64 4, ptr %7) #3
  call void @llvm.lifetime.end.p0(i64 8, ptr %6) #3
  %147 = load i32, ptr %3, align 4
  ret i32 %147
}