; Function Attrs: mustprogress nofree norecurse nosync nounwind memory(argmem: readwrite) uwtable
define hidden i32 @duckdb_fsst_import(ptr noundef writeonly captures(none) %0, ptr noundef readonly captures(none) %1) local_unnamed_addr #13 {
  %3 = alloca [8 x i8], align 8
  call void @llvm.lifetime.start.p0(i64 8, ptr nonnull %3) #24
  %.0.copyload = load i64, ptr %1, align 1
  %.mask = and i64 %.0.copyload, -4294967296
  %.not = icmp eq i64 %.mask, 86716326009110528
  br i1 %.not, label %4, label %.loopexit

4:                                                ; preds = %2
  %5 = getelementptr inbounds nuw i8, ptr %1, i64 8
  %6 = load i8, ptr %5, align 1, !tbaa !8
  %7 = and i8 %6, 1
  %8 = getelementptr inbounds nuw i8, ptr %0, i64 8
  store i8 %7, ptr %8, align 8, !tbaa !117
  %9 = getelementptr inbounds nuw i8, ptr %1, i64 9
  %10 = load i64, ptr %9, align 1
  store i64 %10, ptr %3, align 8
  %11 = getelementptr inbounds nuw i8, ptr %0, i64 9
  store i8 1, ptr %11, align 1, !tbaa !8
  %12 = getelementptr inbounds nuw i8, ptr %0, i64 264
  store i64 0, ptr %12, align 8, !tbaa !120
  %13 = zext nneg i8 %7 to i32
  %.not43 = icmp eq i8 %7, 0
  br i1 %.not43, label %.preheader.preheader, label %14

14:                                               ; preds = %4
  %15 = trunc i64 %10 to i8
  %16 = add i8 %15, -1
  store i8 %16, ptr %3, align 8, !tbaa !8
  br label %.preheader.preheader

.preheader.preheader:                             ; preds = %14, %4
  br label %.preheader

.preheader:                                       ; preds = %.preheader.preheader, %._crit_edge51
  %.03756 = phi i32 [ %27, %._crit_edge51 ], [ 1, %.preheader.preheader ]
  %.03855 = phi i32 [ %.1.lcssa, %._crit_edge51 ], [ 17, %.preheader.preheader ]
  %.03954 = phi i32 [ %.140.lcssa, %._crit_edge51 ], [ %13, %.preheader.preheader ]
  %17 = and i32 %.03756, 7
  %18 = zext nneg i32 %17 to i64
  %19 = getelementptr inbounds nuw [8 x i8], ptr %3, i64 0, i64 %18
  %20 = load i8, ptr %19, align 1, !tbaa !8
  %21 = zext i8 %20 to i32
  %.not60 = icmp eq i8 %20, 0
  br i1 %.not60, label %._crit_edge51, label %.lr.ph50

.lr.ph50:                                         ; preds = %.preheader
  %22 = trunc nuw nsw i32 %17 to i8
  %23 = add nuw nsw i8 %22, 1
  %24 = zext nneg i8 %23 to i64
  br label %.lr.ph.preheader

25:                                               ; preds = %._crit_edge51
  %26 = icmp ult i32 %.140.lcssa, 255
  br i1 %26, label %.lr.ph59.preheader, label %.loopexit

._crit_edge51:                                    ; preds = %._crit_edge, %.preheader
  %.140.lcssa = phi i32 [ %.03954, %.preheader ], [ %32, %._crit_edge ]
  %.1.lcssa = phi i32 [ %.03855, %.preheader ], [ %33, %._crit_edge ]
  %27 = add nuw nsw i32 %.03756, 1
  %exitcond63.not = icmp eq i32 %27, 9
  br i1 %exitcond63.not, label %25, label %.preheader, !llvm.loop !121

.lr.ph.preheader:                                 ; preds = %._crit_edge, %.lr.ph50
  %.03649 = phi i32 [ 0, %.lr.ph50 ], [ %31, %._crit_edge ]
  %.148 = phi i32 [ %.03855, %.lr.ph50 ], [ %33, %._crit_edge ]
  %.14047 = phi i32 [ %.03954, %.lr.ph50 ], [ %32, %._crit_edge ]
  %28 = zext i32 %.14047 to i64
  %29 = getelementptr inbounds nuw [255 x i8], ptr %11, i64 0, i64 %28
  store i8 %23, ptr %29, align 1, !tbaa !8
  %30 = getelementptr inbounds nuw [255 x i64], ptr %12, i64 0, i64 %28
  store i64 0, ptr %30, align 8, !tbaa !120
  br label %.lr.ph

._crit_edge:                                      ; preds = %.lr.ph
  %31 = add nuw nsw i32 %.03649, 1
  %32 = add i32 %.14047, 1
  %exitcond.not = icmp eq i32 %31, %21
  br i1 %exitcond.not, label %._crit_edge51, label %.lr.ph.preheader, !llvm.loop !122

.lr.ph:                                           ; preds = %.lr.ph.preheader, %.lr.ph
  %indvars.iv = phi i64 [ 0, %.lr.ph.preheader ], [ %indvars.iv.next, %.lr.ph ]
  %.245 = phi i32 [ %.148, %.lr.ph.preheader ], [ %33, %.lr.ph ]
  %33 = add i32 %.245, 1
  %34 = zext i32 %.245 to i64
  %35 = getelementptr inbounds nuw i8, ptr %1, i64 %34
  %36 = load i8, ptr %35, align 1, !tbaa !8
  %37 = getelementptr inbounds nuw i8, ptr %30, i64 %indvars.iv
  store i8 %36, ptr %37, align 1, !tbaa !8
  %indvars.iv.next = add nuw nsw i64 %indvars.iv, 1
  %38 = icmp samesign ult i64 %indvars.iv.next, %24
  br i1 %38, label %.lr.ph, label %._crit_edge, !llvm.loop !123

.lr.ph59.preheader:                               ; preds = %25
  %39 = zext nneg i32 %.140.lcssa to i64
  br label %.lr.ph59

.lr.ph59:                                         ; preds = %.lr.ph59.preheader, %.lr.ph59
  %indvars.iv67 = phi i64 [ %39, %.lr.ph59.preheader ], [ %indvars.iv.next68, %.lr.ph59 ]
  %40 = getelementptr inbounds nuw [255 x i64], ptr %12, i64 0, i64 %indvars.iv67
  store i64 32774747032022883, ptr %40, align 8, !tbaa !120
  %indvars.iv.next68 = add nuw nsw i64 %indvars.iv67, 1
  %41 = getelementptr inbounds nuw [255 x i8], ptr %11, i64 0, i64 %indvars.iv67
  store i8 8, ptr %41, align 1, !tbaa !8
  %42 = and i64 %indvars.iv.next68, 4294967295
  %exitcond70.not = icmp eq i64 %42, 255
  br i1 %exitcond70.not, label %.loopexit, label %.lr.ph59, !llvm.loop !124

.loopexit:                                        ; preds = %.lr.ph59, %25, %2
  %.042 = phi i32 [ 0, %2 ], [ %.1.lcssa, %25 ], [ %.1.lcssa, %.lr.ph59 ]
  call void @llvm.lifetime.end.p0(i64 8, ptr nonnull %3) #24
  ret i32 %.042
}